(dp1
S'OriginalConfig'
p2
ccopy_reg
_reconstructor
p3
(cWMCore.Configuration
Configuration
p4
c__builtin__
object
p5
NtRp6
(dp7
S'Site'
p8
g3
(cWMCore.Configuration
ConfigSection
p9
g5
NtRp10
(dp11
S'_internal_skipChecks'
p12
I00
sS'_internal_documentation'
p13
S''
sS'_internal_settings'
p14
c__builtin__
set
p15
((lp16
S'storageSite'
p17
atRp18
sS'_internal_name'
p19
g8
sS'_internal_docstrings'
p20
(dp21
sS'_internal_children'
p22
g15
((ltRp23
sg17
S'T2_US_UCSD'
p24
sS'_internal_parent_ref'
p25
NsbsS'_internal_sections'
p26
(lp27
S'General'
p28
aS'JobType'
p29
aS'Data'
p30
ag8
aS'User'
p31
aS'Debug'
p32
asg28
g3
(g9
g5
NtRp33
(dp34
S'workArea'
p35
S'crab_projects_2019_06_19_Fix'
p36
sg12
I00
sg13
S''
sg14
g15
((lp37
g35
aS'transferOutputs'
p38
aS'transferLogs'
p39
aS'requestName'
p40
atRp41
sg19
g28
sg20
(dp42
sg38
I01
sg22
g15
((ltRp43
sg40
S'Run2017F-Dilepton'
p44
sg25
Nsg39
I01
sbsS'_internal_webapps'
p45
(lp46
sg31
g3
(g9
g5
NtRp47
(dp48
g12
I00
sg13
S''
sg14
g15
((ltRp49
sg19
g31
sg20
(dp50
sg22
g15
((ltRp51
sg25
NsbsS'_internal_components'
p52
(lp53
sg32
g3
(g9
g5
NtRp54
(dp55
g12
I00
sg13
S''
sg14
g15
((ltRp56
sg19
g32
sg20
(dp57
sg22
g15
((ltRp58
sg25
Nsbsg30
g3
(g9
g5
NtRp59
(dp60
S'inputDataset'
p61
S'/SingleMuon/Run2017F-31Mar2018-v1/MINIAOD'
p62
sg12
I00
sS'unitsPerJob'
p63
I50
sg13
S''
sg14
g15
((lp64
g61
ag63
aS'lumiMask'
p65
aS'splitting'
p66
aS'outLFNDirBase'
p67
atRp68
sg19
g30
sg66
S'LumiBased'
p69
sg20
(dp70
sg22
g15
((ltRp71
sg67
S'/store/user/rebassoo/'
p72
sg25
Nsg65
S'combined_RPIN_CMS.json'
p73
sbsg29
g3
(g9
g5
NtRp74
(dp75
g12
I00
sg13
S''
sg14
g15
((lp76
S'psetName'
p77
aS'inputFiles'
p78
aS'pyCfgParams'
p79
atRp80
sg19
g29
sg20
(dp81
sg79
(lp82
S'era=F'
p83
aS'interactive=0'
p84
asg22
g15
((ltRp85
sg77
S'ConfFile_cfg.py'
p86
sg25
Nsg78
(lp87
S'2017-JEC-JER/Fall17_17Nov2017B_V32_DATA_L2L3Residual_AK8PFchs.txt'
p88
aS'2017-JEC-JER/Fall17_17Nov2017B_V32_DATA_L2Relative_AK8PFchs.txt'
p89
aS'2017-JEC-JER/Fall17_17Nov2017B_V32_DATA_L3Absolute_AK8PFchs.txt'
p90
aS'2017-JEC-JER/Fall17_17Nov2017C_V32_DATA_L2L3Residual_AK8PFchs.txt'
p91
aS'2017-JEC-JER/Fall17_17Nov2017C_V32_DATA_L2Relative_AK8PFchs.txt'
p92
aS'2017-JEC-JER/Fall17_17Nov2017C_V32_DATA_L3Absolute_AK8PFchs.txt'
p93
aS'2017-JEC-JER/Fall17_17Nov2017DE_V32_DATA_L2L3Residual_AK8PFchs.txt'
p94
aS'2017-JEC-JER/Fall17_17Nov2017DE_V32_DATA_L2Relative_AK8PFchs.txt'
p95
aS'2017-JEC-JER/Fall17_17Nov2017DE_V32_DATA_L3Absolute_AK8PFchs.txt'
p96
aS'2017-JEC-JER/Fall17_17Nov2017F_V32_DATA_L2L3Residual_AK8PFchs.txt'
p97
aS'2017-JEC-JER/Fall17_17Nov2017F_V32_DATA_L2Relative_AK8PFchs.txt'
p98
aS'2017-JEC-JER/Fall17_17Nov2017F_V32_DATA_L3Absolute_AK8PFchs.txt'
p99
aS'2017-JEC-JER/Fall17_17Nov2017_V32_MC_L1FastJet_AK8PFchs.txt'
p100
aS'2017-JEC-JER/Fall17_17Nov2017_V32_MC_L2Relative_AK8PFchs.txt'
p101
aS'2017-JEC-JER/Fall17_17Nov2017_V32_MC_L3Absolute_AK8PFchs.txt'
p102
aS'2017-JEC-JER/Fall17_V3_MC_PtResolution_AK4PFchs.txt'
p103
aS'2017-JEC-JER/Fall17_V3_MC_PtResolution_AK8PFchs.txt'
p104
aS'2017-JEC-JER/Fall17_V3_MC_SF_AK4PFchs.txt'
p105
aS'2017-JEC-JER/Fall17_V3_MC_SF_AK8PFchs.txt'
p106
asbsbsS'voGroup'
p107
S''
sS'Server'
p108
S'cmsweb.cern.ch'
p109
sS'instance'
p110
S'prod'
p111
sS'RequestName'
p112
V190619_181939:rebassoo_crab_Run2017F-Dilepton
p113
sS'voRole'
p114
S'NULL'
p115
sS'Port'
p116
S''
s.